target datalayout = "e-m:e-p270:32:32-p271:32:32-p272:64:64-i64:64-i128:128-f80:128-n8:16:32:64-S128"
target triple = "x86_64-pc-linux-gnu"

%struct.PyVarObject = type { %struct._object, i64 }
%struct._object = type { %union.anon, ptr }
%union.anon = type { i64 }
%struct.PyListObject = type { %struct.PyVarObject, ptr, i64 }
%struct.anon = type { i32, i32 }

@PyExc_OverflowError = external global ptr, align 8
@.str.3 = private unnamed_addr constant [19 x i8] c"too many constants\00", align 1

; Function Attrs: inlinehint nounwind uwtable
define internal i64 @Py_SIZE(ptr noundef %0) #5 {
  %2 = alloca ptr, align 8
  store ptr %0, ptr %2, align 8, !tbaa !36
  %3 = load ptr, ptr %2, align 8, !tbaa !36
  %4 = getelementptr inbounds nuw %struct.PyVarObject, ptr %3, i32 0, i32 1
  %5 = load i64, ptr %4, align 8, !tbaa !156
  ret i64 %5
}

; Function Attrs: alwaysinline nounwind uwtable
define internal i32 @_Py_IsImmortal(ptr noundef %0) #6 {
  %2 = alloca ptr, align 8
  store ptr %0, ptr %2, align 8, !tbaa !36
  %3 = load ptr, ptr %2, align 8, !tbaa !36
  %4 = getelementptr inbounds nuw %struct._object, ptr %3, i32 0, i32 0
  %5 = getelementptr inbounds nuw %struct.anon, ptr %4, i32 0, i32 0
  %6 = load i32, ptr %5, align 8, !tbaa !126
  %7 = icmp slt i32 %6, 0
  %8 = zext i1 %7 to i32
  ret i32 %8
}

; Function Attrs: inlinehint nounwind uwtable
define internal i64 @PyList_GET_SIZE(ptr noundef %0) #5 {
  %2 = alloca ptr, align 8
  %3 = alloca ptr, align 8
  store ptr %0, ptr %2, align 8, !tbaa !36
  call void @llvm.lifetime.start.p0(i64 8, ptr %3) #7
  %4 = load ptr, ptr %2, align 8, !tbaa !36
  store ptr %4, ptr %3, align 8, !tbaa !97
  %5 = load ptr, ptr %3, align 8, !tbaa !97
  %6 = call i64 @Py_SIZE(ptr noundef %5)
  call void @llvm.lifetime.end.p0(i64 8, ptr %3) #7
  ret i64 %6
}

; Function Attrs: alwaysinline nounwind uwtable
define internal void @Py_DECREF(ptr noundef %0) #6 {
  %2 = alloca ptr, align 8
  store ptr %0, ptr %2, align 8, !tbaa !36
  %3 = load ptr, ptr %2, align 8, !tbaa !36
  %4 = call i32 @_Py_IsImmortal(ptr noundef %3)
  %5 = icmp ne i32 %4, 0
  br i1 %5, label %6, label %7

6:                                                ; preds = %1
  br label %16

7:                                                ; preds = %1
  %8 = load ptr, ptr %2, align 8, !tbaa !36
  %9 = getelementptr inbounds nuw %struct._object, ptr %8, i32 0, i32 0
  %10 = getelementptr inbounds nuw %struct.anon, ptr %9, i32 0, i32 0
  %11 = load i32, ptr %10, align 8, !tbaa !126
  %12 = add i32 %11, -1
  store i32 %12, ptr %10, align 8, !tbaa !126
  %13 = icmp eq i32 %12, 0
  br i1 %13, label %14, label %16

14:                                               ; preds = %7
  %15 = load ptr, ptr %2, align 8, !tbaa !36
  call void @_Py_Dealloc(ptr noundef %15)
  br label %16

16:                                               ; preds = %6, %14, %7
  ret void
}

; Function Attrs: nounwind uwtable
define internal i32 @add_const(ptr noundef %0, ptr noundef %1, ptr noundef %2) #0 {
  %4 = alloca i32, align 4
  %5 = alloca ptr, align 8
  %6 = alloca ptr, align 8
  %7 = alloca ptr, align 8
  %8 = alloca i64, align 8
  %9 = alloca i32, align 4
  store ptr %0, ptr %5, align 8, !tbaa !36
  store ptr %1, ptr %6, align 8, !tbaa !36
  store ptr %2, ptr %7, align 8, !tbaa !36
  %10 = load ptr, ptr %7, align 8, !tbaa !36
  %11 = call i32 @_PyCompile_ConstCacheMergeOne(ptr noundef %10, ptr noundef %5)
  %12 = icmp slt i32 %11, 0
  br i1 %12, label %13, label %15

13:                                               ; preds = %3
  %14 = load ptr, ptr %5, align 8, !tbaa !36
  call void @Py_DECREF(ptr noundef %14)
  store i32 -1, ptr %4, align 4
  br label %59

15:                                               ; preds = %3
  call void @llvm.lifetime.start.p0(i64 8, ptr %8) #7
  store i64 0, ptr %8, align 8, !tbaa !38
  br label %16

16:                                               ; preds = %32, %15
  %17 = load i64, ptr %8, align 8, !tbaa !38
  %18 = load ptr, ptr %6, align 8, !tbaa !36
  %19 = call i64 @PyList_GET_SIZE(ptr noundef %18)
  %20 = icmp slt i64 %17, %19
  br i1 %20, label %21, label %35

21:                                               ; preds = %16
  %22 = load ptr, ptr %6, align 8, !tbaa !36
  %23 = getelementptr inbounds nuw %struct.PyListObject, ptr %22, i32 0, i32 1
  %24 = load ptr, ptr %23, align 8, !tbaa !66
  %25 = load i64, ptr %8, align 8, !tbaa !38
  %26 = getelementptr ptr, ptr %24, i64 %25
  %27 = load ptr, ptr %26, align 8, !tbaa !36
  %28 = load ptr, ptr %5, align 8, !tbaa !36
  %29 = icmp eq ptr %27, %28
  br i1 %29, label %30, label %31

30:                                               ; preds = %21
  br label %35

31:                                               ; preds = %21
  br label %32

32:                                               ; preds = %31
  %33 = load i64, ptr %8, align 8, !tbaa !38
  %34 = add i64 %33, 1
  store i64 %34, ptr %8, align 8, !tbaa !38
  br label %16, !llvm.loop !155

35:                                               ; preds = %30, %16
  %36 = load i64, ptr %8, align 8, !tbaa !38
  %37 = load ptr, ptr %6, align 8, !tbaa !36
  %38 = call i64 @PyList_GET_SIZE(ptr noundef %37)
  %39 = icmp eq i64 %36, %38
  br i1 %39, label %40, label %54

40:                                               ; preds = %35
  %41 = load i64, ptr %8, align 8, !tbaa !38
  %42 = icmp uge i64 %41, 2147483646
  br i1 %42, label %43, label %46

43:                                               ; preds = %40
  %44 = load ptr, ptr @PyExc_OverflowError, align 8, !tbaa !36
  call void @PyErr_SetString(ptr noundef %44, ptr noundef @.str.3)
  %45 = load ptr, ptr %5, align 8, !tbaa !36
  call void @Py_DECREF(ptr noundef %45)
  store i32 -1, ptr %4, align 4
  store i32 1, ptr %9, align 4
  br label %58

46:                                               ; preds = %40
  %47 = load ptr, ptr %6, align 8, !tbaa !36
  %48 = load ptr, ptr %5, align 8, !tbaa !36
  %49 = call i32 @PyList_Append(ptr noundef %47, ptr noundef %48)
  %50 = icmp ne i32 %49, 0
  br i1 %50, label %51, label %53

51:                                               ; preds = %46
  %52 = load ptr, ptr %5, align 8, !tbaa !36
  call void @Py_DECREF(ptr noundef %52)
  store i32 -1, ptr %4, align 4
  store i32 1, ptr %9, align 4
  br label %58

53:                                               ; preds = %46
  br label %54

54:                                               ; preds = %53, %35
  %55 = load ptr, ptr %5, align 8, !tbaa !36
  call void @Py_DECREF(ptr noundef %55)
  %56 = load i64, ptr %8, align 8, !tbaa !38
  %57 = trunc i64 %56 to i32
  store i32 %57, ptr %4, align 4
  store i32 1, ptr %9, align 4
  br label %58

58:                                               ; preds = %54, %51, %43
  call void @llvm.lifetime.end.p0(i64 8, ptr %8) #7
  br label %59

59:                                               ; preds = %58, %13
  %60 = load i32, ptr %4, align 4
  ret i32 %60
}