; Function Attrs: nounwind uwtable
define internal fastcc i32 @add_const(ptr noundef %0, ptr noundef %1, ptr noundef %2) unnamed_addr #0 {
  %4 = alloca ptr, align 8
  store ptr %0, ptr %4, align 8, !tbaa !41
  %5 = call i32 @_PyCompile_ConstCacheMergeOne(ptr noundef %2, ptr noundef nonnull %4) #8
  %6 = icmp slt i32 %5, 0
  br i1 %6, label %12, label %.preheader

.preheader:                                       ; preds = %3
  %7 = getelementptr i8, ptr %1, i64 16
  %.val = load i64, ptr %7, align 8, !tbaa !80
  %8 = icmp sgt i64 %.val, 0
  br i1 %8, label %.lr.ph, label %._crit_edge

.lr.ph:                                           ; preds = %.preheader
  %9 = getelementptr inbounds nuw i8, ptr %1, i64 24
  %10 = load ptr, ptr %9, align 8, !tbaa !49
  %11 = load ptr, ptr %4, align 8, !tbaa !41
  br label %19

12:                                               ; preds = %3
  %13 = load ptr, ptr %4, align 8, !tbaa !41
  %14 = load i32, ptr %13, align 8, !tbaa !55
  %.not.i16 = icmp sgt i32 %14, -1
  br i1 %.not.i16, label %15, label %Py_DECREF.exit17

15:                                               ; preds = %12
  %16 = add nsw i32 %14, -1
  store i32 %16, ptr %13, align 8, !tbaa !55
  %17 = icmp eq i32 %16, 0
  br i1 %17, label %18, label %Py_DECREF.exit17

18:                                               ; preds = %15
  call void @_Py_Dealloc(ptr noundef nonnull %13) #8
  br label %Py_DECREF.exit17

19:                                               ; preds = %.lr.ph, %23
  %.022 = phi i64 [ 0, %.lr.ph ], [ %24, %23 ]
  %20 = getelementptr ptr, ptr %10, i64 %.022
  %21 = load ptr, ptr %20, align 8, !tbaa !41
  %22 = icmp eq ptr %21, %11
  br i1 %22, label %._crit_edge, label %23

23:                                               ; preds = %19
  %24 = add nuw nsw i64 %.022, 1
  %exitcond.not = icmp eq i64 %24, %.val
  br i1 %exitcond.not, label %._crit_edge.thread, label %19, !llvm.loop !178

._crit_edge:                                      ; preds = %19, %.preheader
  %.0.lcssa = phi i64 [ 0, %.preheader ], [ %.022, %19 ]
  %25 = icmp eq i64 %.0.lcssa, %.val
  br i1 %25, label %._crit_edge.thread, label %._crit_edge._crit_edge

._crit_edge._crit_edge:                           ; preds = %._crit_edge
  %.pre = load ptr, ptr %4, align 8, !tbaa !41
  br label %44

._crit_edge.thread:                               ; preds = %23, %._crit_edge
  %.0.lcssa30 = phi i64 [ %.0.lcssa, %._crit_edge ], [ %.val, %23 ]
  %26 = icmp samesign ugt i64 %.val, 2147483645
  br i1 %26, label %27, label %35

27:                                               ; preds = %._crit_edge.thread
  %28 = load ptr, ptr @PyExc_OverflowError, align 8, !tbaa !41
  call void @PyErr_SetString(ptr noundef %28, ptr noundef nonnull @.str.3) #8
  %29 = load ptr, ptr %4, align 8, !tbaa !41
  %30 = load i32, ptr %29, align 8, !tbaa !55
  %.not.i14 = icmp sgt i32 %30, -1
  br i1 %.not.i14, label %31, label %Py_DECREF.exit17

31:                                               ; preds = %27
  %32 = add nsw i32 %30, -1
  store i32 %32, ptr %29, align 8, !tbaa !55
  %33 = icmp eq i32 %32, 0
  br i1 %33, label %34, label %Py_DECREF.exit17

34:                                               ; preds = %31
  call void @_Py_Dealloc(ptr noundef nonnull %29) #8
  br label %Py_DECREF.exit17

35:                                               ; preds = %._crit_edge.thread
  %36 = load ptr, ptr %4, align 8, !tbaa !41
  %37 = call i32 @PyList_Append(ptr noundef nonnull %1, ptr noundef %36) #8
  %.not = icmp eq i32 %37, 0
  %.pre27 = load ptr, ptr %4, align 8, !tbaa !41
  br i1 %.not, label %44, label %38

38:                                               ; preds = %35
  %39 = load i32, ptr %.pre27, align 8, !tbaa !55
  %.not.i12 = icmp sgt i32 %39, -1
  br i1 %.not.i12, label %40, label %Py_DECREF.exit17

40:                                               ; preds = %38
  %41 = add nsw i32 %39, -1
  store i32 %41, ptr %.pre27, align 8, !tbaa !55
  %42 = icmp eq i32 %41, 0
  br i1 %42, label %43, label %Py_DECREF.exit17

43:                                               ; preds = %40
  call void @_Py_Dealloc(ptr noundef nonnull %.pre27) #8
  br label %Py_DECREF.exit17

44:                                               ; preds = %._crit_edge._crit_edge, %35
  %.0.lcssa29 = phi i64 [ %.0.lcssa, %._crit_edge._crit_edge ], [ %.0.lcssa30, %35 ]
  %45 = phi ptr [ %.pre, %._crit_edge._crit_edge ], [ %.pre27, %35 ]
  %46 = load i32, ptr %45, align 8, !tbaa !55
  %.not.i = icmp sgt i32 %46, -1
  br i1 %.not.i, label %47, label %Py_DECREF.exit

47:                                               ; preds = %44
  %48 = add nsw i32 %46, -1
  store i32 %48, ptr %45, align 8, !tbaa !55
  %49 = icmp eq i32 %48, 0
  br i1 %49, label %50, label %Py_DECREF.exit

50:                                               ; preds = %47
  call void @_Py_Dealloc(ptr noundef nonnull %45) #8
  br label %Py_DECREF.exit

Py_DECREF.exit:                                   ; preds = %44, %47, %50
  %51 = trunc i64 %.0.lcssa29 to i32
  br label %Py_DECREF.exit17

Py_DECREF.exit17:                                 ; preds = %43, %40, %38, %34, %31, %27, %18, %15, %12, %Py_DECREF.exit
  %.011 = phi i32 [ %51, %Py_DECREF.exit ], [ -1, %12 ], [ -1, %15 ], [ -1, %18 ], [ -1, %27 ], [ -1, %31 ], [ -1, %34 ], [ -1, %38 ], [ -1, %40 ], [ -1, %43 ]
  ret i32 %.011
}